target datalayout = "e-m:e-p270:32:32-p271:32:32-p272:64:64-i64:64-i128:128-f80:128-n8:16:32:64-S128"
target triple = "x86_64-pc-linux-gnu"

%class.OopHandle = type { ptr }
%class.JavaThread = type { %class.Thread, i8, %class.OopHandle, %class.OopHandle, %class.OopHandle, %class.OopHandle, %class.JavaFrameAnchor, ptr, %struct.JNIEnv_, ptr, ptr, ptr, ptr, ptr, ptr, ptr, ptr, %class.MemRegion, ptr, i8, ptr, ptr, ptr, i32, i32, %"struct.SafepointMechanism::ThreadData", ptr, ptr, i32, i32, i8, i8, i8, i8, i8, i8, i8, i32, i8, i32, i8, i8, i64, %union.anon, ptr, ptr, i64, i64, ptr, ptr, %class.StackOverflow, ptr, ptr, ptr, i32, i32, ptr, i32, i32, i32, ptr, ptr, i32, i64, i64, %class.StackWatermarks, %class.HandshakeState, ptr, i32, ptr, i32, i32, ptr, %class.Parker, ptr, ptr, %class.LockStack }
%class.Thread = type { %class.ThreadShadow.base, i64, [43 x i64], ptr, ptr, i32, ptr, i64, i64, %class.ThreadLocalAllocBuffer, i64, %class.ThreadHeapSampler, %class.ThreadStatisticalInfo, %class.JfrThreadLocal, ptr, ptr, ptr, ptr, ptr, ptr, i64, i32, i32, ptr, i32, i32, i32, i32, i8, ptr }
%class.ThreadShadow.base = type <{ ptr, ptr, ptr, i32 }>
%class.ThreadLocalAllocBuffer = type <{ ptr, ptr, ptr, ptr, ptr, i64, i64, i64, i64, i32, i32, i32, i32, i64, %class.AdaptiveWeightedAverage, [4 x i8] }>
%class.AdaptiveWeightedAverage = type { float, i32, i32, i8, float }
%class.ThreadHeapSampler = type { i64 }
%class.ThreadStatisticalInfo = type { i64, i64 }
%class.JfrThreadLocal = type <{ ptr, ptr, ptr, ptr, ptr, ptr, ptr, ptr, ptr, ptr, %class.RefCountHandle, i64, i64, i64, i64, i64, i64, i64, i64, i64, i64, i64, i32, i32, i32, i16, i8, i8, i8, i8, i8, [5 x i8] }>
%class.RefCountHandle = type { ptr }
%class.JavaFrameAnchor = type { ptr, ptr, ptr }
%struct.JNIEnv_ = type { ptr }
%class.MemRegion = type { ptr, i64 }
%"struct.SafepointMechanism::ThreadData" = type { i64, i64 }
%union.anon = type { ptr }
%class.StackOverflow = type { i32, ptr, ptr, ptr, ptr, ptr, ptr }
%class.StackWatermarks = type { ptr }
%class.HandshakeState = type <{ ptr, %class.FilterQueue, %class.Monitor, ptr, i8, i8, i8, [5 x i8] }>
%class.FilterQueue = type { ptr }
%class.Monitor = type { %class.Mutex }
%class.Mutex = type { ptr, %class.PlatformMonitor, ptr }
%class.PlatformMonitor = type { %class.PlatformMutex, %union.pthread_cond_t }
%class.PlatformMutex = type { %union.pthread_mutex_t }
%union.pthread_mutex_t = type { %struct.__pthread_mutex_s }
%struct.__pthread_mutex_s = type { i32, i32, i32, i32, i32, i16, i16, %struct.__pthread_internal_list }
%struct.__pthread_internal_list = type { ptr, ptr }
%union.pthread_cond_t = type { %struct.__pthread_cond_s }
%struct.__pthread_cond_s = type { %union.__atomic_wide_counter, %union.__atomic_wide_counter, [2 x i32], [2 x i32], i32, i32, [2 x i32] }
%union.__atomic_wide_counter = type { i64 }
%class.Parker = type { %class.PlatformParker }
%class.PlatformParker = type { i32, i32, [1 x %union.pthread_mutex_t], [2 x %union.pthread_cond_t] }
%class.LockStack = type { i32, i64, [8 x ptr] }
%class.JVMCIObject = type <{ ptr, i8, [7 x i8] }>
%class.JVMCIRuntime = type <{ i32, [4 x i8], %class.JVMCIObject, ptr, ptr, i32, i32, ptr, ptr, %class.GrowableArray, i32, i8, [3 x i8] }>
%class.GrowableArray = type { %class.GrowableArrayWithAllocator, %class.GrowableArrayMetadata }
%class.GrowableArrayWithAllocator = type { %class.GrowableArrayView }
%class.GrowableArrayView = type { %class.GrowableArrayBase, ptr }
%class.GrowableArrayBase = type { i32, i32 }
%class.GrowableArrayMetadata = type { i64 }
%class.MutexLocker = type { %class.MutexLockerImpl }
%class.MutexLockerImpl = type { ptr }

@.str = private unnamed_addr constant [41 x i8] c"src/hotspot/share/jvmci/jvmciRuntime.cpp\00", align 1
@g_assert_poison = external global ptr, align 8
@JVMCITraceLevel = external global i64, align 8
@JVMCIEventLogLevel = external global i64, align 8
@_ZN5JVMCI18_compiler_runtimesE = external global ptr, align 8
@_ZN5JVMCI26_shutdown_compiler_runtimeE = external global ptr, align 8
@JVMCI_lock = external global ptr, align 8
@.str.49 = private unnamed_addr constant [53 x i8] c"Cannot attach to JVMCI runtime that is shutting down\00", align 1
@.str.50 = private unnamed_addr constant [26 x i8] c"Cannot find JVMCI runtime\00", align 1
@.str.51 = private unnamed_addr constant [89 x i8] c"guarantee(this == JVMCI::_shutdown_compiler_runtime || _num_attached_threads > 0) failed\00", align 1
@.str.52 = private unnamed_addr constant [66 x i8] c"missing reservation in JVMCI runtime %d: _num_attached_threads=%d\00", align 1
@.str.53 = private unnamed_addr constant [31 x i8] c"attached to JVMCI runtime %d%s\00", align 1
@.str.54 = private unnamed_addr constant [21 x i8] c" [in JVMCI shutdown]\00", align 1
@.str.55 = private unnamed_addr constant [1 x i8] zeroinitializer, align 1

; Function Attrs: mustprogress nounwind uwtable
define linkonce_odr hidden void @_ZN15MutexLockerImplD2Ev(ptr noundef nonnull align 8 dereferenceable(8) %0) unnamed_addr #1 comdat align 2 {
  %2 = alloca ptr, align 8
  store ptr %0, ptr %2, align 8
  %3 = load ptr, ptr %2, align 8
  %4 = getelementptr inbounds %class.MutexLockerImpl, ptr %3, i32 0, i32 0
  %5 = load ptr, ptr %4, align 8
  %6 = icmp ne ptr %5, null
  br i1 %6, label %7, label %10

7:                                                ; preds = %1
  %8 = getelementptr inbounds %class.MutexLockerImpl, ptr %3, i32 0, i32 0
  %9 = load ptr, ptr %8, align 8
  call void @_ZN5Mutex6unlockEv(ptr noundef nonnull align 8 dereferenceable(104) %9)
  br label %10

10:                                               ; preds = %7, %1
  ret void
}

; Function Attrs: mustprogress nounwind uwtable
define linkonce_odr hidden void @_ZN10JavaThread20set_libjvmci_runtimeEP12JVMCIRuntime(ptr noundef nonnull align 8 dereferenceable(1800) %0, ptr noundef %1) #1 comdat align 2 {
  %3 = alloca ptr, align 8
  %4 = alloca ptr, align 8
  store ptr %0, ptr %3, align 8
  store ptr %1, ptr %4, align 8
  %5 = load ptr, ptr %3, align 8
  %6 = load ptr, ptr %4, align 8
  %7 = getelementptr inbounds %class.JavaThread, ptr %5, i32 0, i32 44
  store ptr %6, ptr %7, align 8
  ret void
}

; Function Attrs: mustprogress nounwind uwtable
define linkonce_odr hidden void @_ZN15MutexLockerImplC2EP5MutexNS0_18SafepointCheckFlagE(ptr noundef nonnull align 8 dereferenceable(8) %0, ptr noundef %1, i32 noundef %2) unnamed_addr #1 comdat align 2 {
  %4 = alloca ptr, align 8
  %5 = alloca ptr, align 8
  %6 = alloca i32, align 4
  %7 = alloca i8, align 1
  store ptr %0, ptr %4, align 8
  store ptr %1, ptr %5, align 8
  store i32 %2, ptr %6, align 4
  %8 = load ptr, ptr %4, align 8
  %9 = getelementptr inbounds %class.MutexLockerImpl, ptr %8, i32 0, i32 0
  %10 = load ptr, ptr %5, align 8
  store ptr %10, ptr %9, align 8
  %11 = load i32, ptr %6, align 4
  %12 = icmp eq i32 %11, 1
  %13 = zext i1 %12 to i8
  store i8 %13, ptr %7, align 1
  %14 = getelementptr inbounds %class.MutexLockerImpl, ptr %8, i32 0, i32 0
  %15 = load ptr, ptr %14, align 8
  %16 = icmp ne ptr %15, null
  br i1 %16, label %17, label %27

17:                                               ; preds = %3
  %18 = load i8, ptr %7, align 1
  %19 = trunc i8 %18 to i1
  br i1 %19, label %20, label %23

20:                                               ; preds = %17
  %21 = getelementptr inbounds %class.MutexLockerImpl, ptr %8, i32 0, i32 0
  %22 = load ptr, ptr %21, align 8
  call void @_ZN5Mutex28lock_without_safepoint_checkEv(ptr noundef nonnull align 8 dereferenceable(104) %22)
  br label %26

23:                                               ; preds = %17
  %24 = getelementptr inbounds %class.MutexLockerImpl, ptr %8, i32 0, i32 0
  %25 = load ptr, ptr %24, align 8
  call void @_ZN5Mutex4lockEv(ptr noundef nonnull align 8 dereferenceable(104) %25)
  br label %26

26:                                               ; preds = %23, %20
  br label %27

27:                                               ; preds = %26, %3
  ret void
}

; Function Attrs: mustprogress nounwind uwtable
define linkonce_odr hidden void @_ZN11MutexLockerD2Ev(ptr noundef nonnull align 8 dereferenceable(8) %0) unnamed_addr #1 comdat align 2 {
  %2 = alloca ptr, align 8
  store ptr %0, ptr %2, align 8
  %3 = load ptr, ptr %2, align 8
  call void @_ZN15MutexLockerImplD2Ev(ptr noundef nonnull align 8 dereferenceable(8) %3) #11
  ret void
}

; Function Attrs: mustprogress nounwind uwtable
define hidden void @_ZN12JVMCIRuntime13attach_threadEP10JavaThread(ptr noundef nonnull align 8 dereferenceable(93) %0, ptr noundef %1) #1 align 2 {
  %3 = alloca ptr, align 8
  %4 = alloca ptr, align 8
  store ptr %0, ptr %3, align 8
  store ptr %1, ptr %4, align 8
  %5 = load ptr, ptr %3, align 8
  %6 = load ptr, ptr %4, align 8
  call void @_ZN10JavaThread20set_libjvmci_runtimeEP12JVMCIRuntime(ptr noundef nonnull align 8 dereferenceable(1800) %6, ptr noundef %5)
  br label %7

7:                                                ; preds = %2
  %8 = load ptr, ptr @_ZN5JVMCI26_shutdown_compiler_runtimeE, align 8
  %9 = icmp eq ptr %5, %8
  br i1 %9, label %20, label %10

10:                                               ; preds = %7
  %11 = getelementptr inbounds %class.JVMCIRuntime, ptr %5, i32 0, i32 10
  %12 = load i32, ptr %11, align 8
  %13 = icmp sgt i32 %12, 0
  br i1 %13, label %20, label %14

14:                                               ; preds = %10
  %15 = load ptr, ptr @g_assert_poison, align 8
  store i8 88, ptr %15, align 1
  %16 = getelementptr inbounds %class.JVMCIRuntime, ptr %5, i32 0, i32 6
  %17 = load i32, ptr %16, align 4
  %18 = getelementptr inbounds %class.JVMCIRuntime, ptr %5, i32 0, i32 10
  %19 = load i32, ptr %18, align 8
  call void (ptr, i32, ptr, ptr, ...) @_Z15report_vm_errorPKciS0_S0_z(ptr noundef @.str, i32 noundef 1146, ptr noundef @.str.51, ptr noundef @.str.52, i32 noundef %17, i32 noundef %19) #13
  unreachable

20:                                               ; preds = %10, %7
  br label %21

21:                                               ; preds = %20
  %22 = load i64, ptr @JVMCITraceLevel, align 8
  %23 = icmp slt i64 %22, 1
  br i1 %23, label %24, label %28

24:                                               ; preds = %21
  %25 = load i64, ptr @JVMCIEventLogLevel, align 8
  %26 = icmp slt i64 %25, 1
  br i1 %26, label %27, label %28

27:                                               ; preds = %24
  br label %33

28:                                               ; preds = %24, %21
  %29 = getelementptr inbounds %class.JVMCIRuntime, ptr %5, i32 0, i32 6
  %30 = load i32, ptr %29, align 4
  %31 = call noundef zeroext i1 @_ZN5JVMCI11in_shutdownEv()
  %32 = select i1 %31, ptr @.str.54, ptr @.str.55
  call void (ptr, ...) @_ZN5JVMCI6event1EPKcz(ptr noundef @.str.53, i32 noundef %30, ptr noundef %32)
  br label %33

33:                                               ; preds = %28, %27
  ret void
}

; Function Attrs: mustprogress nounwind uwtable
define hidden void @_ZN12JVMCIRuntime17pre_attach_threadEP10JavaThread(ptr noundef nonnull align 8 dereferenceable(93) %0, ptr noundef %1) #1 align 2 {
  %3 = alloca ptr, align 8
  %4 = alloca ptr, align 8
  store ptr %0, ptr %3, align 8
  store ptr %1, ptr %4, align 8
  %5 = load ptr, ptr %3, align 8
  %6 = getelementptr inbounds %class.JVMCIRuntime, ptr %5, i32 0, i32 10
  %7 = load i32, ptr %6, align 8
  %8 = add nsw i32 %7, 1
  store i32 %8, ptr %6, align 8
  ret void
}

; Function Attrs: mustprogress nounwind uwtable
define linkonce_odr hidden void @_ZN11MutexLockerC2EP5MutexNS0_18SafepointCheckFlagE(ptr noundef nonnull align 8 dereferenceable(8) %0, ptr noundef %1, i32 noundef %2) unnamed_addr #1 comdat align 2 {
  %4 = alloca ptr, align 8
  %5 = alloca ptr, align 8
  %6 = alloca i32, align 4
  store ptr %0, ptr %4, align 8
  store ptr %1, ptr %5, align 8
  store i32 %2, ptr %6, align 4
  %7 = load ptr, ptr %4, align 8
  %8 = load ptr, ptr %5, align 8
  %9 = load i32, ptr %6, align 4
  call void @_ZN15MutexLockerImplC2EP5MutexNS0_18SafepointCheckFlagE(ptr noundef nonnull align 8 dereferenceable(8) %7, ptr noundef %8, i32 noundef %9)
  ret void
}

; Function Attrs: mustprogress nounwind uwtable
define hidden noundef ptr @_ZN12JVMCIRuntime28attach_shared_library_threadEP10JavaThreadP7JavaVM_(ptr noundef %0, ptr noundef %1) #1 align 2 {
  %3 = alloca ptr, align 8
  %4 = alloca ptr, align 8
  %5 = alloca ptr, align 8
  %6 = alloca %class.MutexLocker, align 8
  %7 = alloca ptr, align 8
  %8 = alloca i32, align 4
  store ptr %0, ptr %4, align 8
  store ptr %1, ptr %5, align 8
  %9 = load ptr, ptr @JVMCI_lock, align 8
  call void @_ZN11MutexLockerC2EP5MutexNS0_18SafepointCheckFlagE(ptr noundef nonnull align 8 dereferenceable(8) %6, ptr noundef %9, i32 noundef 0)
  %10 = load ptr, ptr @_ZN5JVMCI18_compiler_runtimesE, align 8
  store ptr %10, ptr %7, align 8
  br label %11

11:                                               ; preds = %32, %2
  %12 = load ptr, ptr %7, align 8
  %13 = icmp ne ptr %12, null
  br i1 %13, label %14, label %36

14:                                               ; preds = %11
  %15 = load ptr, ptr %7, align 8
  %16 = getelementptr inbounds %class.JVMCIRuntime, ptr %15, i32 0, i32 4
  %17 = load ptr, ptr %16, align 8
  %18 = load ptr, ptr %5, align 8
  %19 = icmp eq ptr %17, %18
  br i1 %19, label %20, label %31

20:                                               ; preds = %14
  %21 = load ptr, ptr %7, align 8
  %22 = getelementptr inbounds %class.JVMCIRuntime, ptr %21, i32 0, i32 10
  %23 = load i32, ptr %22, align 8
  %24 = icmp eq i32 %23, -1
  br i1 %24, label %25, label %26

25:                                               ; preds = %20
  store ptr @.str.49, ptr %3, align 8
  store i32 1, ptr %8, align 4
  br label %37

26:                                               ; preds = %20
  %27 = load ptr, ptr %7, align 8
  %28 = load ptr, ptr %4, align 8
  call void @_ZN12JVMCIRuntime17pre_attach_threadEP10JavaThread(ptr noundef nonnull align 8 dereferenceable(93) %27, ptr noundef %28)
  %29 = load ptr, ptr %7, align 8
  %30 = load ptr, ptr %4, align 8
  call void @_ZN12JVMCIRuntime13attach_threadEP10JavaThread(ptr noundef nonnull align 8 dereferenceable(93) %29, ptr noundef %30)
  store ptr null, ptr %3, align 8
  store i32 1, ptr %8, align 4
  br label %37

31:                                               ; preds = %14
  br label %32

32:                                               ; preds = %31
  %33 = load ptr, ptr %7, align 8
  %34 = getelementptr inbounds %class.JVMCIRuntime, ptr %33, i32 0, i32 7
  %35 = load ptr, ptr %34, align 8
  store ptr %35, ptr %7, align 8
  br label %11, !llvm.loop !14

36:                                               ; preds = %11
  store ptr @.str.50, ptr %3, align 8
  store i32 1, ptr %8, align 4
  br label %37

37:                                               ; preds = %36, %26, %25
  call void @_ZN11MutexLockerD2Ev(ptr noundef nonnull align 8 dereferenceable(8) %6) #11
  %38 = load ptr, ptr %3, align 8
  ret ptr %38
}