; Function Attrs: mustprogress nounwind uwtable
define hidden noundef ptr @_ZN12JVMCIRuntime28attach_shared_library_threadEP10JavaThreadP7JavaVM_(ptr nocapture noundef writeonly %0, ptr noundef readnone %1) local_unnamed_addr #0 align 2 {
  %3 = load ptr, ptr @JVMCI_lock, align 8
  %.not.i.i = icmp eq ptr %3, null
  br i1 %.not.i.i, label %_ZN11MutexLockerC2EP5MutexNS0_18SafepointCheckFlagE.exit, label %4

4:                                                ; preds = %2
  tail call void @_ZN5Mutex4lockEv(ptr noundef nonnull align 8 dereferenceable(104) %3) #15
  br label %_ZN11MutexLockerC2EP5MutexNS0_18SafepointCheckFlagE.exit

_ZN11MutexLockerC2EP5MutexNS0_18SafepointCheckFlagE.exit: ; preds = %2, %4
  %.013 = load ptr, ptr @_ZN5JVMCI18_compiler_runtimesE, align 8
  %.not14 = icmp eq ptr %.013, null
  br i1 %.not14, label %_ZN12JVMCIRuntime13attach_threadEP10JavaThread.exit, label %.lr.ph

.lr.ph:                                           ; preds = %_ZN11MutexLockerC2EP5MutexNS0_18SafepointCheckFlagE.exit, %35
  %.015 = phi ptr [ %.0, %35 ], [ %.013, %_ZN11MutexLockerC2EP5MutexNS0_18SafepointCheckFlagE.exit ]
  %5 = getelementptr inbounds i8, ptr %.015, i64 32
  %6 = load ptr, ptr %5, align 8
  %7 = icmp eq ptr %6, %1
  br i1 %7, label %8, label %35

8:                                                ; preds = %.lr.ph
  %9 = getelementptr inbounds i8, ptr %.015, i64 88
  %10 = load i32, ptr %9, align 8
  %11 = icmp eq i32 %10, -1
  br i1 %11, label %_ZN12JVMCIRuntime13attach_threadEP10JavaThread.exit, label %12

12:                                               ; preds = %8
  %13 = add nuw nsw i32 %10, 1
  store i32 %13, ptr %9, align 8
  %14 = getelementptr inbounds i8, ptr %0, i64 1176
  store ptr %.015, ptr %14, align 8
  %15 = load ptr, ptr @_ZN5JVMCI26_shutdown_compiler_runtimeE, align 8
  %16 = icmp eq ptr %15, %.015
  br i1 %16, label %25, label %17

17:                                               ; preds = %12
  %18 = load i32, ptr %9, align 8
  %19 = icmp sgt i32 %18, 0
  br i1 %19, label %25, label %20

20:                                               ; preds = %17
  %21 = load ptr, ptr @g_assert_poison, align 8
  store i8 88, ptr %21, align 1
  %22 = getelementptr inbounds i8, ptr %.015, i64 44
  %23 = load i32, ptr %22, align 4
  %24 = load i32, ptr %9, align 8
  tail call void (ptr, i32, ptr, ptr, ...) @_Z15report_vm_errorPKciS0_S0_z(ptr noundef nonnull @.str, i32 noundef 1146, ptr noundef nonnull @.str.51, ptr noundef nonnull @.str.52, i32 noundef %23, i32 noundef %24) #17
  unreachable

25:                                               ; preds = %17, %12
  %26 = load i64, ptr @JVMCITraceLevel, align 8
  %27 = icmp slt i64 %26, 1
  %28 = load i64, ptr @JVMCIEventLogLevel, align 8
  %29 = icmp slt i64 %28, 1
  %or.cond.i = select i1 %27, i1 %29, i1 false
  br i1 %or.cond.i, label %_ZN12JVMCIRuntime13attach_threadEP10JavaThread.exit, label %30

30:                                               ; preds = %25
  %31 = getelementptr inbounds i8, ptr %.015, i64 44
  %32 = load i32, ptr %31, align 4
  %33 = tail call noundef zeroext i1 @_ZN5JVMCI11in_shutdownEv() #15
  %34 = select i1 %33, ptr @.str.54, ptr @.str.55
  tail call void (ptr, ...) @_ZN5JVMCI6event1EPKcz(ptr noundef nonnull @.str.53, i32 noundef %32, ptr noundef nonnull %34) #15
  br label %_ZN12JVMCIRuntime13attach_threadEP10JavaThread.exit

35:                                               ; preds = %.lr.ph
  %36 = getelementptr inbounds i8, ptr %.015, i64 48
  %.0 = load ptr, ptr %36, align 8
  %.not = icmp eq ptr %.0, null
  br i1 %.not, label %_ZN12JVMCIRuntime13attach_threadEP10JavaThread.exit, label %.lr.ph, !llvm.loop !41

_ZN12JVMCIRuntime13attach_threadEP10JavaThread.exit: ; preds = %35, %_ZN11MutexLockerC2EP5MutexNS0_18SafepointCheckFlagE.exit, %30, %25, %8
  %.010 = phi ptr [ @.str.49, %8 ], [ null, %25 ], [ null, %30 ], [ @.str.50, %_ZN11MutexLockerC2EP5MutexNS0_18SafepointCheckFlagE.exit ], [ @.str.50, %35 ]
  br i1 %.not.i.i, label %_ZN11MutexLockerD2Ev.exit, label %37

37:                                               ; preds = %_ZN12JVMCIRuntime13attach_threadEP10JavaThread.exit
  tail call void @_ZN5Mutex6unlockEv(ptr noundef nonnull align 8 dereferenceable(104) %3) #15
  br label %_ZN11MutexLockerD2Ev.exit

_ZN11MutexLockerD2Ev.exit:                        ; preds = %_ZN12JVMCIRuntime13attach_threadEP10JavaThread.exit, %37
  ret ptr %.010
}